target datalayout = "e-m:e-p270:32:32-p271:32:32-p272:64:64-i64:64-i128:128-f80:128-n8:16:32:64-S128"
target triple = "x86_64-pc-linux-gnu"

%struct.Node = type { i32 }
%struct.ExprSetupInfo = type { i16, i16, i16, i16, i16, ptr }
%struct.Var = type { %struct.Expr, i32, i16, i32, i32, i32, ptr, i32, i32, i32, i16, i32 }
%struct.Expr = type { i32 }
%struct.SubPlan = type { %struct.Expr, i32, ptr, ptr, i32, ptr, i32, i32, i32, i8, i8, i8, ptr, ptr, ptr, double, double }

; Function Attrs: nounwind uwtable
define internal zeroext i1 @expr_setup_walker(ptr noundef %0, ptr noundef %1) #0 {
  %3 = alloca i1, align 1
  %4 = alloca ptr, align 8
  %5 = alloca ptr, align 8
  %6 = alloca ptr, align 8
  %7 = alloca i16, align 2
  %8 = alloca ptr, align 8
  store ptr %0, ptr %4, align 8
  store ptr %1, ptr %5, align 8
  %9 = load ptr, ptr %4, align 8
  %10 = icmp eq ptr %9, null
  br i1 %10, label %11, label %12

11:                                               ; preds = %2
  store i1 false, ptr %3, align 1
  br label %178

12:                                               ; preds = %2
  %13 = load ptr, ptr %4, align 8
  %14 = getelementptr inbounds nuw %struct.Node, ptr %13, i32 0, i32 0
  %15 = load i32, ptr %14, align 4
  %16 = icmp eq i32 %15, 6
  br i1 %16, label %17, label %136

17:                                               ; preds = %12
  call void @llvm.lifetime.start.p0(i64 8, ptr %6) #8
  %18 = load ptr, ptr %4, align 8
  store ptr %18, ptr %6, align 8
  call void @llvm.lifetime.start.p0(i64 2, ptr %7) #8
  %19 = load ptr, ptr %6, align 8
  %20 = getelementptr inbounds nuw %struct.Var, ptr %19, i32 0, i32 2
  %21 = load i16, ptr %20, align 8
  store i16 %21, ptr %7, align 2
  %22 = load ptr, ptr %6, align 8
  %23 = getelementptr inbounds nuw %struct.Var, ptr %22, i32 0, i32 1
  %24 = load i32, ptr %23, align 4
  switch i32 %24, label %67 [
    i32 -1, label %25
    i32 -2, label %46
  ]

25:                                               ; preds = %17
  %26 = load ptr, ptr %5, align 8
  %27 = getelementptr inbounds nuw %struct.ExprSetupInfo, ptr %26, i32 0, i32 0
  %28 = load i16, ptr %27, align 8
  %29 = sext i16 %28 to i32
  %30 = load i16, ptr %7, align 2
  %31 = sext i16 %30 to i32
  %32 = icmp sgt i32 %29, %31
  br i1 %32, label %33, label %38

33:                                               ; preds = %25
  %34 = load ptr, ptr %5, align 8
  %35 = getelementptr inbounds nuw %struct.ExprSetupInfo, ptr %34, i32 0, i32 0
  %36 = load i16, ptr %35, align 8
  %37 = sext i16 %36 to i32
  br label %41

38:                                               ; preds = %25
  %39 = load i16, ptr %7, align 2
  %40 = sext i16 %39 to i32
  br label %41

41:                                               ; preds = %38, %33
  %42 = phi i32 [ %37, %33 ], [ %40, %38 ]
  %43 = trunc i32 %42 to i16
  %44 = load ptr, ptr %5, align 8
  %45 = getelementptr inbounds nuw %struct.ExprSetupInfo, ptr %44, i32 0, i32 0
  store i16 %43, ptr %45, align 8
  br label %135

46:                                               ; preds = %17
  %47 = load ptr, ptr %5, align 8
  %48 = getelementptr inbounds nuw %struct.ExprSetupInfo, ptr %47, i32 0, i32 1
  %49 = load i16, ptr %48, align 2
  %50 = sext i16 %49 to i32
  %51 = load i16, ptr %7, align 2
  %52 = sext i16 %51 to i32
  %53 = icmp sgt i32 %50, %52
  br i1 %53, label %54, label %59

54:                                               ; preds = %46
  %55 = load ptr, ptr %5, align 8
  %56 = getelementptr inbounds nuw %struct.ExprSetupInfo, ptr %55, i32 0, i32 1
  %57 = load i16, ptr %56, align 2
  %58 = sext i16 %57 to i32
  br label %62

59:                                               ; preds = %46
  %60 = load i16, ptr %7, align 2
  %61 = sext i16 %60 to i32
  br label %62

62:                                               ; preds = %59, %54
  %63 = phi i32 [ %58, %54 ], [ %61, %59 ]
  %64 = trunc i32 %63 to i16
  %65 = load ptr, ptr %5, align 8
  %66 = getelementptr inbounds nuw %struct.ExprSetupInfo, ptr %65, i32 0, i32 1
  store i16 %64, ptr %66, align 2
  br label %135

67:                                               ; preds = %17
  %68 = load ptr, ptr %6, align 8
  %69 = getelementptr inbounds nuw %struct.Var, ptr %68, i32 0, i32 8
  %70 = load i32, ptr %69, align 4
  switch i32 %70, label %134 [
    i32 0, label %71
    i32 1, label %92
    i32 2, label %113
  ]

71:                                               ; preds = %67
  %72 = load ptr, ptr %5, align 8
  %73 = getelementptr inbounds nuw %struct.ExprSetupInfo, ptr %72, i32 0, i32 2
  %74 = load i16, ptr %73, align 4
  %75 = sext i16 %74 to i32
  %76 = load i16, ptr %7, align 2
  %77 = sext i16 %76 to i32
  %78 = icmp sgt i32 %75, %77
  br i1 %78, label %79, label %84

79:                                               ; preds = %71
  %80 = load ptr, ptr %5, align 8
  %81 = getelementptr inbounds nuw %struct.ExprSetupInfo, ptr %80, i32 0, i32 2
  %82 = load i16, ptr %81, align 4
  %83 = sext i16 %82 to i32
  br label %87

84:                                               ; preds = %71
  %85 = load i16, ptr %7, align 2
  %86 = sext i16 %85 to i32
  br label %87

87:                                               ; preds = %84, %79
  %88 = phi i32 [ %83, %79 ], [ %86, %84 ]
  %89 = trunc i32 %88 to i16
  %90 = load ptr, ptr %5, align 8
  %91 = getelementptr inbounds nuw %struct.ExprSetupInfo, ptr %90, i32 0, i32 2
  store i16 %89, ptr %91, align 4
  br label %134

92:                                               ; preds = %67
  %93 = load ptr, ptr %5, align 8
  %94 = getelementptr inbounds nuw %struct.ExprSetupInfo, ptr %93, i32 0, i32 3
  %95 = load i16, ptr %94, align 2
  %96 = sext i16 %95 to i32
  %97 = load i16, ptr %7, align 2
  %98 = sext i16 %97 to i32
  %99 = icmp sgt i32 %96, %98
  br i1 %99, label %100, label %105

100:                                              ; preds = %92
  %101 = load ptr, ptr %5, align 8
  %102 = getelementptr inbounds nuw %struct.ExprSetupInfo, ptr %101, i32 0, i32 3
  %103 = load i16, ptr %102, align 2
  %104 = sext i16 %103 to i32
  br label %108

105:                                              ; preds = %92
  %106 = load i16, ptr %7, align 2
  %107 = sext i16 %106 to i32
  br label %108

108:                                              ; preds = %105, %100
  %109 = phi i32 [ %104, %100 ], [ %107, %105 ]
  %110 = trunc i32 %109 to i16
  %111 = load ptr, ptr %5, align 8
  %112 = getelementptr inbounds nuw %struct.ExprSetupInfo, ptr %111, i32 0, i32 3
  store i16 %110, ptr %112, align 2
  br label %134

113:                                              ; preds = %67
  %114 = load ptr, ptr %5, align 8
  %115 = getelementptr inbounds nuw %struct.ExprSetupInfo, ptr %114, i32 0, i32 4
  %116 = load i16, ptr %115, align 8
  %117 = sext i16 %116 to i32
  %118 = load i16, ptr %7, align 2
  %119 = sext i16 %118 to i32
  %120 = icmp sgt i32 %117, %119
  br i1 %120, label %121, label %126

121:                                              ; preds = %113
  %122 = load ptr, ptr %5, align 8
  %123 = getelementptr inbounds nuw %struct.ExprSetupInfo, ptr %122, i32 0, i32 4
  %124 = load i16, ptr %123, align 8
  %125 = sext i16 %124 to i32
  br label %129

126:                                              ; preds = %113
  %127 = load i16, ptr %7, align 2
  %128 = sext i16 %127 to i32
  br label %129

129:                                              ; preds = %126, %121
  %130 = phi i32 [ %125, %121 ], [ %128, %126 ]
  %131 = trunc i32 %130 to i16
  %132 = load ptr, ptr %5, align 8
  %133 = getelementptr inbounds nuw %struct.ExprSetupInfo, ptr %132, i32 0, i32 4
  store i16 %131, ptr %133, align 8
  br label %134

134:                                              ; preds = %67, %129, %108, %87
  br label %135

135:                                              ; preds = %134, %62, %41
  store i1 false, ptr %3, align 1
  call void @llvm.lifetime.end.p0(i64 2, ptr %7) #8
  call void @llvm.lifetime.end.p0(i64 8, ptr %6) #8
  br label %178

136:                                              ; preds = %12
  %137 = load ptr, ptr %4, align 8
  %138 = getelementptr inbounds nuw %struct.Node, ptr %137, i32 0, i32 0
  %139 = load i32, ptr %138, align 4
  %140 = icmp eq i32 %139, 23
  br i1 %140, label %141, label %156

141:                                              ; preds = %136
  call void @llvm.lifetime.start.p0(i64 8, ptr %8) #8
  %142 = load ptr, ptr %4, align 8
  store ptr %142, ptr %8, align 8
  %143 = load ptr, ptr %8, align 8
  %144 = getelementptr inbounds nuw %struct.SubPlan, ptr %143, i32 0, i32 1
  %145 = load i32, ptr %144, align 4
  %146 = icmp eq i32 %145, 5
  br i1 %146, label %147, label %155

147:                                              ; preds = %141
  %148 = load ptr, ptr %5, align 8
  %149 = getelementptr inbounds nuw %struct.ExprSetupInfo, ptr %148, i32 0, i32 5
  %150 = load ptr, ptr %149, align 8
  %151 = load ptr, ptr %8, align 8
  %152 = call ptr @lappend(ptr noundef %150, ptr noundef %151)
  %153 = load ptr, ptr %5, align 8
  %154 = getelementptr inbounds nuw %struct.ExprSetupInfo, ptr %153, i32 0, i32 5
  store ptr %152, ptr %154, align 8
  br label %155

155:                                              ; preds = %147, %141
  call void @llvm.lifetime.end.p0(i64 8, ptr %8) #8
  br label %156

156:                                              ; preds = %155, %136
  %157 = load ptr, ptr %4, align 8
  %158 = getelementptr inbounds nuw %struct.Node, ptr %157, i32 0, i32 0
  %159 = load i32, ptr %158, align 4
  %160 = icmp eq i32 %159, 9
  br i1 %160, label %161, label %162

161:                                              ; preds = %156
  store i1 false, ptr %3, align 1
  br label %178

162:                                              ; preds = %156
  %163 = load ptr, ptr %4, align 8
  %164 = getelementptr inbounds nuw %struct.Node, ptr %163, i32 0, i32 0
  %165 = load i32, ptr %164, align 4
  %166 = icmp eq i32 %165, 11
  br i1 %166, label %167, label %168

167:                                              ; preds = %162
  store i1 false, ptr %3, align 1
  br label %178

168:                                              ; preds = %162
  %169 = load ptr, ptr %4, align 8
  %170 = getelementptr inbounds nuw %struct.Node, ptr %169, i32 0, i32 0
  %171 = load i32, ptr %170, align 4
  %172 = icmp eq i32 %171, 10
  br i1 %172, label %173, label %174

173:                                              ; preds = %168
  store i1 false, ptr %3, align 1
  br label %178

174:                                              ; preds = %168
  %175 = load ptr, ptr %4, align 8
  %176 = load ptr, ptr %5, align 8
  %177 = call zeroext i1 @expression_tree_walker_impl(ptr noundef %175, ptr noundef @expr_setup_walker, ptr noundef %176)
  store i1 %177, ptr %3, align 1
  br label %178

178:                                              ; preds = %174, %173, %167, %161, %135, %11
  %179 = load i1, ptr %3, align 1
  ret i1 %179
}