; Function Attrs: nounwind uwtable
define internal zeroext i1 @expr_setup_walker(ptr noundef %0, ptr noundef %1) #0 {
  %3 = icmp eq ptr %0, null
  br i1 %3, label %39, label %4

4:                                                ; preds = %2
  %5 = load i32, ptr %0, align 4
  switch i32 %5, label %36 [
    i32 6, label %6
    i32 23, label %28
  ]

6:                                                ; preds = %4
  %7 = getelementptr inbounds nuw i8, ptr %0, i64 8
  %8 = load i16, ptr %7, align 8
  %9 = getelementptr inbounds nuw i8, ptr %0, i64 4
  %10 = load i32, ptr %9, align 4
  switch i32 %10, label %16 [
    i32 -1, label %11
    i32 -2, label %13
  ]

11:                                               ; preds = %6
  %12 = load i16, ptr %1, align 8
  %. = tail call i16 @llvm.smax.i16(i16 %12, i16 %8)
  store i16 %., ptr %1, align 8
  br label %39

13:                                               ; preds = %6
  %14 = getelementptr inbounds nuw i8, ptr %1, i64 2
  %15 = load i16, ptr %14, align 2
  %.59 = tail call i16 @llvm.smax.i16(i16 %15, i16 %8)
  store i16 %.59, ptr %14, align 2
  br label %39

16:                                               ; preds = %6
  %17 = getelementptr inbounds nuw i8, ptr %0, i64 36
  %18 = load i32, ptr %17, align 4
  switch i32 %18, label %39 [
    i32 0, label %19
    i32 1, label %22
    i32 2, label %25
  ]

19:                                               ; preds = %16
  %20 = getelementptr inbounds nuw i8, ptr %1, i64 4
  %21 = load i16, ptr %20, align 4
  %.60 = tail call i16 @llvm.smax.i16(i16 %21, i16 %8)
  store i16 %.60, ptr %20, align 4
  br label %39

22:                                               ; preds = %16
  %23 = getelementptr inbounds nuw i8, ptr %1, i64 6
  %24 = load i16, ptr %23, align 2
  %.61 = tail call i16 @llvm.smax.i16(i16 %24, i16 %8)
  store i16 %.61, ptr %23, align 2
  br label %39

25:                                               ; preds = %16
  %26 = getelementptr inbounds nuw i8, ptr %1, i64 8
  %27 = load i16, ptr %26, align 8
  %.62 = tail call i16 @llvm.smax.i16(i16 %27, i16 %8)
  store i16 %.62, ptr %26, align 8
  br label %39

28:                                               ; preds = %4
  %29 = getelementptr inbounds nuw i8, ptr %0, i64 4
  %30 = load i32, ptr %29, align 4
  %31 = icmp eq i32 %30, 5
  br i1 %31, label %32, label %.thread

32:                                               ; preds = %28
  %33 = getelementptr inbounds nuw i8, ptr %1, i64 16
  %34 = load ptr, ptr %33, align 8
  %35 = tail call ptr @lappend(ptr noundef %34, ptr noundef nonnull %0) #10
  store ptr %35, ptr %33, align 8
  %.pre = load i32, ptr %0, align 4
  br label %36

36:                                               ; preds = %32, %4
  %37 = phi i32 [ %.pre, %32 ], [ %5, %4 ]
  %.off = add i32 %37, -9
  %switch = icmp ult i32 %.off, 3
  br i1 %switch, label %39, label %.thread

.thread:                                          ; preds = %28, %36
  %38 = tail call zeroext i1 @expression_tree_walker_impl(ptr noundef nonnull %0, ptr noundef nonnull @expr_setup_walker, ptr noundef %1) #10
  br label %39

39:                                               ; preds = %36, %11, %13, %25, %22, %19, %16, %2, %.thread
  %.0 = phi i1 [ %38, %.thread ], [ false, %2 ], [ false, %16 ], [ false, %19 ], [ false, %22 ], [ false, %25 ], [ false, %13 ], [ false, %11 ], [ false, %36 ]
  ret i1 %.0
}